target datalayout = "e-m:e-p270:32:32-p271:32:32-p272:64:64-i64:64-i128:128-f80:128-n8:16:32:64-S128"
target triple = "x86_64-pc-linux-gnu"

%struct.bb_state = type { %struct.bb_config, ptr, ptr, ptr, %union.pthread_mutex_t, i64, i64, ptr, i64, i64, i64, ptr, %union.pthread_cond_t, i8, %union.pthread_mutex_t, i64, i32, i32, i64, i64 }
%struct.bb_config = type { ptr, ptr, ptr, ptr, ptr, ptr, ptr, ptr, i32, ptr, ptr, i64, i32, ptr, i32, i32, i32, i32, ptr, ptr, ptr, ptr, i32 }
%union.pthread_cond_t = type { %struct.__pthread_cond_s }
%struct.__pthread_cond_s = type { %union.__atomic_wide_counter, %union.__atomic_wide_counter, [2 x i32], [2 x i32], i32, i32, [2 x i32] }
%union.__atomic_wide_counter = type { i64 }
%union.pthread_mutex_t = type { %struct.__pthread_mutex_s }
%struct.__pthread_mutex_s = type { i32, i32, i32, i32, i32, i16, i16, %struct.__pthread_internal_list }
%struct.__pthread_internal_list = type { ptr, ptr }
%struct.timespec = type { i64, i64 }
%struct.timeval = type { i64, i64 }

@.str = private unnamed_addr constant [22 x i8] c"burst_buffer_common.c\00", align 1
@.str.80 = private unnamed_addr constant [29 x i8] c"%s: pthread_mutex_lock(): %m\00", align 1
@__func__.bb_sleep = private unnamed_addr constant [9 x i8] c"bb_sleep\00", align 1
@.str.81 = private unnamed_addr constant [39 x i8] c"%s:%d %s: pthread_cond_timedwait(): %m\00", align 1
@.str.82 = private unnamed_addr constant [31 x i8] c"%s: pthread_mutex_unlock(): %m\00", align 1

; Function Attrs: nounwind uwtable
define dso_local void @bb_sleep(ptr noundef %0, i32 noundef %1) #0 {
  %3 = alloca ptr, align 8
  %4 = alloca i32, align 4
  %5 = alloca %struct.timespec, align 8
  %6 = alloca %struct.timeval, align 8
  %7 = alloca i32, align 4
  %8 = alloca i32, align 4
  %9 = alloca i32, align 4
  %10 = alloca i32, align 4
  store ptr %0, ptr %3, align 8
  store i32 %1, ptr %4, align 4
  call void @llvm.lifetime.start.p0(i64 16, ptr %5) #9
  call void @llvm.memset.p0.i64(ptr align 8 %5, i8 0, i64 16, i1 false)
  call void @llvm.lifetime.start.p0(i64 16, ptr %6) #9
  call void @llvm.memset.p0.i64(ptr align 8 %6, i8 0, i64 16, i1 false)
  %11 = call i32 @gettimeofday(ptr noundef %6, ptr noundef null) #9
  %12 = icmp ne i32 %11, 0
  br i1 %12, label %13, label %15

13:                                               ; preds = %2
  %14 = call i32 @sleep(i32 noundef 1)
  store i32 1, ptr %7, align 4
  br label %74

15:                                               ; preds = %2
  %16 = getelementptr inbounds nuw %struct.timeval, ptr %6, i32 0, i32 0
  %17 = load i64, ptr %16, align 8
  %18 = load i32, ptr %4, align 4
  %19 = sext i32 %18 to i64
  %20 = add nsw i64 %17, %19
  %21 = getelementptr inbounds nuw %struct.timespec, ptr %5, i32 0, i32 0
  store i64 %20, ptr %21, align 8
  %22 = getelementptr inbounds nuw %struct.timeval, ptr %6, i32 0, i32 1
  %23 = load i64, ptr %22, align 8
  %24 = mul nsw i64 %23, 1000
  %25 = getelementptr inbounds nuw %struct.timespec, ptr %5, i32 0, i32 1
  store i64 %24, ptr %25, align 8
  br label %26

26:                                               ; preds = %15
  call void @llvm.lifetime.start.p0(i64 4, ptr %8) #9
  %27 = load ptr, ptr %3, align 8
  %28 = getelementptr inbounds nuw %struct.bb_state, ptr %27, i32 0, i32 14
  %29 = call i32 @pthread_mutex_lock(ptr noundef %28) #9
  store i32 %29, ptr %8, align 4
  %30 = load i32, ptr %8, align 4
  %31 = icmp ne i32 %30, 0
  br i1 %31, label %32, label %35

32:                                               ; preds = %26
  %33 = load i32, ptr %8, align 4
  %34 = call ptr @__errno_location() #12
  store i32 %33, ptr %34, align 4
  call void (ptr, ...) @fatal_abort(ptr noundef @.str.80, ptr noundef @__func__.bb_sleep) #10
  unreachable

35:                                               ; preds = %26
  call void @llvm.lifetime.end.p0(i64 4, ptr %8) #9
  br label %36

36:                                               ; preds = %35
  br label %37

37:                                               ; preds = %36
  %38 = load ptr, ptr %3, align 8
  %39 = getelementptr inbounds nuw %struct.bb_state, ptr %38, i32 0, i32 13
  %40 = load i8, ptr %39, align 8, !range !17, !noundef !18
  %41 = trunc i8 %40 to i1
  br i1 %41, label %61, label %42

42:                                               ; preds = %37
  br label %43

43:                                               ; preds = %42
  call void @llvm.lifetime.start.p0(i64 4, ptr %9) #9
  %44 = load ptr, ptr %3, align 8
  %45 = getelementptr inbounds nuw %struct.bb_state, ptr %44, i32 0, i32 12
  %46 = load ptr, ptr %3, align 8
  %47 = getelementptr inbounds nuw %struct.bb_state, ptr %46, i32 0, i32 14
  %48 = call i32 @pthread_cond_timedwait(ptr noundef %45, ptr noundef %47, ptr noundef %5)
  store i32 %48, ptr %9, align 4
  %49 = load i32, ptr %9, align 4
  %50 = icmp ne i32 %49, 0
  br i1 %50, label %51, label %58

51:                                               ; preds = %43
  %52 = load i32, ptr %9, align 4
  %53 = icmp ne i32 %52, 110
  br i1 %53, label %54, label %58

54:                                               ; preds = %51
  %55 = load i32, ptr %9, align 4
  %56 = call ptr @__errno_location() #12
  store i32 %55, ptr %56, align 4
  %57 = call i32 (ptr, ...) @error(ptr noundef @.str.81, ptr noundef @.str, i32 noundef 1114, ptr noundef @__func__.bb_sleep)
  br label %58

58:                                               ; preds = %54, %51, %43
  call void @llvm.lifetime.end.p0(i64 4, ptr %9) #9
  br label %59

59:                                               ; preds = %58
  br label %60

60:                                               ; preds = %59
  br label %61

61:                                               ; preds = %60, %37
  br label %62

62:                                               ; preds = %61
  call void @llvm.lifetime.start.p0(i64 4, ptr %10) #9
  %63 = load ptr, ptr %3, align 8
  %64 = getelementptr inbounds nuw %struct.bb_state, ptr %63, i32 0, i32 14
  %65 = call i32 @pthread_mutex_unlock(ptr noundef %64) #9
  store i32 %65, ptr %10, align 4
  %66 = load i32, ptr %10, align 4
  %67 = icmp ne i32 %66, 0
  br i1 %67, label %68, label %71

68:                                               ; preds = %62
  %69 = load i32, ptr %10, align 4
  %70 = call ptr @__errno_location() #12
  store i32 %69, ptr %70, align 4
  call void (ptr, ...) @fatal_abort(ptr noundef @.str.82, ptr noundef @__func__.bb_sleep) #10
  unreachable

71:                                               ; preds = %62
  call void @llvm.lifetime.end.p0(i64 4, ptr %10) #9
  br label %72

72:                                               ; preds = %71
  br label %73

73:                                               ; preds = %72
  store i32 0, ptr %7, align 4
  br label %74

74:                                               ; preds = %73, %13
  call void @llvm.lifetime.end.p0(i64 16, ptr %6) #9
  call void @llvm.lifetime.end.p0(i64 16, ptr %5) #9
  %75 = load i32, ptr %7, align 4
  switch i32 %75, label %77 [
    i32 0, label %76
    i32 1, label %76
  ]

76:                                               ; preds = %74, %74
  ret void

77:                                               ; preds = %74
  unreachable
}