; Function Attrs: nounwind uwtable
define dso_local void @bb_sleep(ptr noundef %0, i32 noundef %1) local_unnamed_addr #0 {
  %3 = alloca %struct.timespec, align 8
  %4 = alloca %struct.timeval, align 8
  call void @llvm.lifetime.start.p0(i64 16, ptr nonnull %3) #17
  call void @llvm.lifetime.start.p0(i64 16, ptr nonnull %4) #17
  call void @llvm.memset.p0.i64(ptr noundef nonnull align 8 dereferenceable(16) %4, i8 0, i64 16, i1 false)
  %5 = call i32 @gettimeofday(ptr noundef nonnull %4, ptr noundef null) #17
  %.not = icmp eq i32 %5, 0
  br i1 %.not, label %8, label %6

6:                                                ; preds = %2
  %7 = tail call i32 @sleep(i32 noundef 1) #17
  br label %34

8:                                                ; preds = %2
  %9 = load i64, ptr %4, align 8
  %10 = sext i32 %1 to i64
  %11 = add nsw i64 %9, %10
  store i64 %11, ptr %3, align 8
  %12 = getelementptr inbounds nuw i8, ptr %4, i64 8
  %13 = load i64, ptr %12, align 8
  %14 = mul nsw i64 %13, 1000
  %15 = getelementptr inbounds nuw i8, ptr %3, i64 8
  store i64 %14, ptr %15, align 8
  %16 = getelementptr inbounds nuw i8, ptr %0, i64 344
  %17 = tail call i32 @pthread_mutex_lock(ptr noundef nonnull %16) #17
  %.not15 = icmp eq i32 %17, 0
  br i1 %.not15, label %20, label %18

18:                                               ; preds = %8
  %19 = tail call ptr @__errno_location() #20
  store i32 %17, ptr %19, align 4
  tail call void (ptr, ...) @fatal_abort(ptr noundef nonnull @.str.80, ptr noundef nonnull @__func__.bb_sleep) #18
  unreachable

20:                                               ; preds = %8
  %21 = getelementptr inbounds nuw i8, ptr %0, i64 336
  %22 = load i8, ptr %21, align 8, !range !25, !noundef !26
  %23 = trunc nuw i8 %22 to i1
  br i1 %23, label %30, label %24

24:                                               ; preds = %20
  %25 = getelementptr inbounds nuw i8, ptr %0, i64 288
  %26 = call i32 @pthread_cond_timedwait(ptr noundef nonnull %25, ptr noundef nonnull %16, ptr noundef nonnull %3) #17
  switch i32 %26, label %27 [
    i32 110, label %30
    i32 0, label %30
  ]

27:                                               ; preds = %24
  %28 = tail call ptr @__errno_location() #20
  store i32 %26, ptr %28, align 4
  %29 = call i32 (ptr, ...) @error(ptr noundef nonnull @.str.81, ptr noundef nonnull @.str, i32 noundef 1114, ptr noundef nonnull @__func__.bb_sleep) #17
  br label %30

30:                                               ; preds = %27, %24, %24, %20
  %31 = call i32 @pthread_mutex_unlock(ptr noundef nonnull %16) #17
  %.not16 = icmp eq i32 %31, 0
  br i1 %.not16, label %34, label %32

32:                                               ; preds = %30
  %33 = tail call ptr @__errno_location() #20
  store i32 %31, ptr %33, align 4
  call void (ptr, ...) @fatal_abort(ptr noundef nonnull @.str.82, ptr noundef nonnull @__func__.bb_sleep) #18
  unreachable

34:                                               ; preds = %30, %6
  call void @llvm.lifetime.end.p0(i64 16, ptr nonnull %4) #17
  call void @llvm.lifetime.end.p0(i64 16, ptr nonnull %3) #17
  ret void
}